; Function Attrs: mustprogress nounwind uwtable
define void @_ZN5folly18LogStreamProcessorC2EPKNS_11LogCategoryENS_8LogLevelENS_5RangeIPKcEEjS8_NS0_12InternalTypeEONSt7__cxx1112basic_stringIcSt11char_traitsIcESaIcEEE(ptr noundef nonnull align 8 dereferenceable(464) initializes((0, 12), (16, 36), (40, 56)) %0, ptr noundef %1, i32 noundef %2, ptr %3, ptr %4, i32 noundef %5, ptr noundef readonly byval(%"class.folly::Range") align 8 captures(none) %6, i32 %7, ptr noundef nonnull align 8 dereferenceable(32) %8) unnamed_addr #0 align 2 personality ptr @__gxx_personality_v0 {
  store ptr %1, ptr %0, align 8, !tbaa !7
  %10 = getelementptr inbounds nuw i8, ptr %0, i64 8
  store i32 %2, ptr %10, align 8, !tbaa !27
  %11 = getelementptr inbounds nuw i8, ptr %0, i64 16
  store ptr %3, ptr %11, align 8, !tbaa !28
  %.sroa.2.0..sroa_idx = getelementptr inbounds nuw i8, ptr %0, i64 24
  store ptr %4, ptr %.sroa.2.0..sroa_idx, align 8, !tbaa !28
  %12 = getelementptr inbounds nuw i8, ptr %0, i64 32
  store i32 %5, ptr %12, align 8, !tbaa !29
  %13 = getelementptr inbounds nuw i8, ptr %0, i64 40
  call void @llvm.memcpy.p0.p0.i64(ptr noundef nonnull align 8 dereferenceable(16) %13, ptr noundef nonnull align 8 dereferenceable(16) %6, i64 16, i1 false), !tbaa.struct !34
  %14 = getelementptr inbounds nuw i8, ptr %0, i64 56
  %15 = getelementptr inbounds nuw i8, ptr %0, i64 72
  store ptr %15, ptr %14, align 8, !tbaa !30
  %16 = load ptr, ptr %8, align 8, !tbaa !32
  %17 = getelementptr inbounds nuw i8, ptr %8, i64 16
  %18 = icmp eq ptr %16, %17
  br i1 %18, label %19, label %_ZNKSt7__cxx1112basic_stringIcSt11char_traitsIcESaIcEE11_M_is_localEv.exit.i

19:                                               ; preds = %9
  %20 = getelementptr inbounds nuw i8, ptr %8, i64 8
  %21 = load i64, ptr %20, align 8, !tbaa !31
  %22 = icmp ult i64 %21, 16
  tail call void @llvm.assume(i1 %22)
  %23 = add nuw nsw i64 %21, 1
  tail call void @llvm.memcpy.p0.p0.i64(ptr noundef nonnull align 8 dereferenceable(1) %15, ptr noundef nonnull align 8 dereferenceable(1) %17, i64 %23, i1 false)
  br label %_ZNSt7__cxx1112basic_stringIcSt11char_traitsIcESaIcEEC2EOS4_.exit

_ZNKSt7__cxx1112basic_stringIcSt11char_traitsIcESaIcEE11_M_is_localEv.exit.i: ; preds = %9
  store ptr %16, ptr %14, align 8, !tbaa !32
  %24 = load i64, ptr %17, align 8, !tbaa !33
  store i64 %24, ptr %15, align 8, !tbaa !33
  br label %_ZNSt7__cxx1112basic_stringIcSt11char_traitsIcESaIcEEC2EOS4_.exit

_ZNSt7__cxx1112basic_stringIcSt11char_traitsIcESaIcEEC2EOS4_.exit: ; preds = %19, %_ZNKSt7__cxx1112basic_stringIcSt11char_traitsIcESaIcEE11_M_is_localEv.exit.i
  %25 = getelementptr inbounds nuw i8, ptr %8, i64 8
  %26 = load i64, ptr %25, align 8, !tbaa !31
  %27 = getelementptr inbounds nuw i8, ptr %0, i64 64
  store i64 %26, ptr %27, align 8, !tbaa !31
  store ptr %17, ptr %8, align 8, !tbaa !32
  store i64 0, ptr %25, align 8, !tbaa !31
  store i8 0, ptr %17, align 8, !tbaa !33
  %28 = getelementptr inbounds nuw i8, ptr %0, i64 88
  invoke void @_ZN5folly9LogStreamC1EPNS_18LogStreamProcessorE(ptr noundef nonnull align 8 dereferenceable(112) %28, ptr noundef nonnull %0)
          to label %29 unwind label %30

29:                                               ; preds = %_ZNSt7__cxx1112basic_stringIcSt11char_traitsIcESaIcEEC2EOS4_.exit
  ret void

30:                                               ; preds = %_ZNSt7__cxx1112basic_stringIcSt11char_traitsIcESaIcEEC2EOS4_.exit
  %31 = landingpad { ptr, i32 }
          catch ptr null
  %32 = extractvalue { ptr, i32 } %31, 0
  tail call void @__clang_call_terminate(ptr %32) #16
  unreachable
}